Certificate:
    Data:
        Version: 3 (0x2)
        Serial Number: 0 (0x0)
        Signature Algorithm: sha1WithRSAEncryption
        Issuer: C=PT, O=Universidade do Porto, OU=MIEEC, CN=CA 201105567 201109352
        Validity
            Not Before: Dec  7 10:44:44 2015 GMT
            Not After : Dec  6 10:44:44 2016 GMT
        Subject: C=PT, O=Universidade do Porto, OU=MIEEC, CN=Diogo Martins/emailAddress=ee11124@fe.up.pt
        Subject Public Key Info:
            Public Key Algorithm: rsaEncryption
            RSA Public Key: (512 bit)
                Modulus (512 bit):
                    00:9b:2d:b1:11:09:36:c7:11:a2:9e:9f:cb:d4:f5:
                    56:e7:ae:f2:a8:e3:87:f5:56:bd:cf:7f:d6:ea:16:
                    b3:f6:15:0c:b4:c9:36:3f:44:e6:2d:9c:6d:8b:91:
                    31:c5:c1:23:07:60:cf:18:e6:f0:36:9e:b7:9d:12:
                    69:48:49:d8:fb
                Exponent: 65537 (0x10001)
        X509v3 extensions:
            X509v3 Basic Constraints: 
                CA:FALSE
            Netscape Comment: 
                OpenSSL Generated Certificate
            X509v3 Subject Key Identifier: 
                AA:5C:96:9C:E7:5C:A4:FA:9A:4B:46:19:8B:07:88:F4:5C:C7:84:52
            X509v3 Authority Key Identifier: 
                keyid:0C:27:9C:23:F3:8D:B8:E0:EE:0D:2C:60:BA:69:05:B0:7B:8E:E1:0D

    Signature Algorithm: sha1WithRSAEncryption
        ae:01:e3:4b:78:32:48:2c:ff:d3:19:30:b4:4f:3b:16:26:f9:
        71:56:ca:dc:52:25:62:1c:d3:e5:98:67:d9:82:1a:6d:ff:d4:
        aa:fa:63:53:fd:27:a1:21:70:05:1d:1e:fc:52:6d:a0:84:9f:
        8d:97:31:cf:d4:5d:1c:ef:43:71:55:64:ad:3d:39:cc:34:5a:
        2e:29:00:ad:9a:03:e2:5c:95:6e:05:0d:ff:d8:85:6e:1b:a5:
        77:d8:8a:81:cf:6c:9d:f4:19:ce:b4:15:d0:9c:b6:d5:8e:28:
        46:13:60:76:29:22:81:be:6b:8b:e8:77:76:6e:01:f4:9e:06:
        14:63:9b:1e:d4:3e:1d:e7:5b:7f:5b:46:a4:13:71:0f:de:cf:
        96:c4:aa:63:b6:cb:d4:4e:69:84:b1:5f:a5:2b:3c:96:52:6f:
        10:4e:81:91:33:43:84:38:8e:2f:fe:19:be:ea:a5:a5:47:38:
        ca:14:c0:f7:4c:44:6a:bd:7d:74:e3:b1:02:31:fb:03:bd:1d:
        b5:c3:6c:d7:7a:3d:1e:91:ae:7b:98:e7:fc:d9:68:20:5a:56:
        f7:c7:ca:03:b3:31:ad:ed:d7:31:7f:46:78:70:38:ea:d7:a2:
        8f:23:16:7c:e8:3b:9b:b0:e6:98:45:a9:04:91:16:00:cf:47:
        ad:5d:6b:36
-----BEGIN CERTIFICATE-----
MIIDAjCCAeqgAwIBAgIBADANBgkqhkiG9w0BAQUFADBeMQswCQYDVQQGEwJQVDEe
MBwGA1UEChMVVW5pdmVyc2lkYWRlIGRvIFBvcnRvMQ4wDAYDVQQLEwVNSUVFQzEf
MB0GA1UEAxMWQ0EgMjAxMTA1NTY3IDIwMTEwOTM1MjAeFw0xNTEyMDcxMDQ0NDRa
Fw0xNjEyMDYxMDQ0NDRaMHYxCzAJBgNVBAYTAlBUMR4wHAYDVQQKExVVbml2ZXJz
aWRhZGUgZG8gUG9ydG8xDjAMBgNVBAsTBU1JRUVDMRYwFAYDVQQDEw1EaW9nbyBN
YXJ0aW5zMR8wHQYJKoZIhvcNAQkBFhBlZTExMTI0QGZlLnVwLnB0MFwwDQYJKoZI
hvcNAQEBBQADSwAwSAJBAJstsREJNscRop6fy9T1Vueu8qjjh/VWvc9/1uoWs/YV
DLTJNj9E5i2cbYuRMcXBIwdgzxjm8Daet50SaUhJ2PsCAwEAAaN7MHkwCQYDVR0T
BAIwADAsBglghkgBhvhCAQ0EHxYdT3BlblNTTCBHZW5lcmF0ZWQgQ2VydGlmaWNh
dGUwHQYDVR0OBBYEFKpclpznXKT6mktGGYsHiPRcx4RSMB8GA1UdIwQYMBaAFAwn
nCPzjbjg7g0sYLppBbB7juENMA0GCSqGSIb3DQEBBQUAA4IBAQCuAeNLeDJILP/T
GTC0TzsWJvlxVsrcUiViHNPlmGfZghpt/9Sq+mNT/SehIXAFHR78Um2ghJ+NlzHP
1F0c70NxVWStPTnMNFouKQCtmgPiXJVuBQ3/2IVuG6V32IqBz2yd9BnOtBXQnLbV
jihGE2B2KSKBvmuL6Hd2bgH0ngYUY5se1D4d51t/W0akE3EP3s+WxKpjtsvUTmmE
sV+lKzyWUm8QToGRM0OEOI4v/hm+6qWlRzjKFMD3TERqvX1047ECMfsDvR21w2zX
ej0eka57mOf82WggWlb3x8oDszGt7dcxf0Z4cDjq16KPIxZ86DubsOaYRakEkRYA
z0etXWs2
-----END CERTIFICATE-----
