Certificate:
    Data:
        Version: 3 (0x2)
        Serial Number: 1 (0x1)
        Signature Algorithm: sha1WithRSAEncryption
        Issuer: C=PT, O=Universidade do Porto, OU=MIEEC, CN=CA 201105567 201109352
        Validity
            Not Before: Dec  7 10:48:35 2015 GMT
            Not After : Dec  6 10:48:35 2016 GMT
        Subject: C=PT, O=Universidade do Porto, OU=MIEEC, CN=Jo\xC3\xA3o Meira/emailAddress=ee11081@fe.up.pt
        Subject Public Key Info:
            Public Key Algorithm: rsaEncryption
            RSA Public Key: (512 bit)
                Modulus (512 bit):
                    00:a1:a7:da:e3:41:84:af:78:50:a1:31:9f:ae:6a:
                    21:ef:99:e3:8a:b6:1d:ff:86:cb:b1:1f:0e:49:88:
                    04:65:ad:1a:ae:fc:97:d7:19:b3:db:8d:d8:0c:74:
                    6f:b1:69:69:40:13:94:3f:4b:46:30:85:f5:3e:ad:
                    04:c1:97:b4:19
                Exponent: 65537 (0x10001)
        X509v3 extensions:
            X509v3 Basic Constraints: 
                CA:FALSE
            Netscape Comment: 
                OpenSSL Generated Certificate
            X509v3 Subject Key Identifier: 
                B9:61:A7:2F:5E:FB:8A:65:48:20:7D:97:04:B9:11:C3:84:DB:28:2A
            X509v3 Authority Key Identifier: 
                keyid:0C:27:9C:23:F3:8D:B8:E0:EE:0D:2C:60:BA:69:05:B0:7B:8E:E1:0D

    Signature Algorithm: sha1WithRSAEncryption
        9e:0f:b0:58:48:09:56:fc:21:89:e2:bb:3b:8e:1a:8d:8a:03:
        83:f4:17:29:9f:24:4a:d2:9c:19:b6:3c:93:ac:f1:15:16:24:
        6a:e6:1a:cf:7d:32:06:c8:14:1c:1e:5d:9e:7c:06:45:21:f7:
        bc:de:ee:b2:e8:6c:99:a1:ff:52:48:49:14:65:c0:63:88:f4:
        6e:7d:b3:3f:c4:6b:50:cd:ff:cf:d1:28:41:0d:83:8d:b6:18:
        88:2c:be:cc:ae:9c:4c:87:c6:ed:54:4c:09:b0:73:8a:9d:20:
        a2:4e:38:3e:c3:f1:4b:1f:5a:c2:50:01:78:24:1b:57:ed:f6:
        01:19:1e:ca:c1:04:b6:c5:63:c8:f8:6e:e5:7c:9f:f9:e4:f1:
        04:0d:5d:bb:79:79:b4:f8:1e:02:6b:27:44:5c:b6:ca:df:c8:
        fa:81:ec:d5:25:c6:c9:b8:a9:1d:dd:06:5a:18:29:e6:d1:9a:
        8f:04:d6:7b:da:92:4d:8e:6a:34:07:47:46:45:ba:a5:3b:92:
        a5:87:da:81:39:89:6a:27:6d:a1:31:46:5b:4a:dd:2d:30:82:
        11:2e:bb:a5:69:8a:a7:18:06:ff:f9:a8:37:fb:96:55:7b:32:
        e5:a9:4c:2e:07:aa:16:09:5f:7b:c3:7c:16:98:17:dd:49:5f:
        73:20:18:22
-----BEGIN CERTIFICATE-----
MIIDADCCAeigAwIBAgIBATANBgkqhkiG9w0BAQUFADBeMQswCQYDVQQGEwJQVDEe
MBwGA1UEChMVVW5pdmVyc2lkYWRlIGRvIFBvcnRvMQ4wDAYDVQQLEwVNSUVFQzEf
MB0GA1UEAxMWQ0EgMjAxMTA1NTY3IDIwMTEwOTM1MjAeFw0xNTEyMDcxMDQ4MzVa
Fw0xNjEyMDYxMDQ4MzVaMHQxCzAJBgNVBAYTAlBUMR4wHAYDVQQKExVVbml2ZXJz
aWRhZGUgZG8gUG9ydG8xDjAMBgNVBAsTBU1JRUVDMRQwEgYDVQQDFAtKb8OjbyBN
ZWlyYTEfMB0GCSqGSIb3DQEJARYQZWUxMTA4MUBmZS51cC5wdDBcMA0GCSqGSIb3
DQEBAQUAA0sAMEgCQQChp9rjQYSveFChMZ+uaiHvmeOKth3/hsuxHw5JiARlrRqu
/JfXGbPbjdgMdG+xaWlAE5Q/S0YwhfU+rQTBl7QZAgMBAAGjezB5MAkGA1UdEwQC
MAAwLAYJYIZIAYb4QgENBB8WHU9wZW5TU0wgR2VuZXJhdGVkIENlcnRpZmljYXRl
MB0GA1UdDgQWBBS5YacvXvuKZUggfZcEuRHDhNsoKjAfBgNVHSMEGDAWgBQMJ5wj
84244O4NLGC6aQWwe47hDTANBgkqhkiG9w0BAQUFAAOCAQEAng+wWEgJVvwhieK7
O44ajYoDg/QXKZ8kStKcGbY8k6zxFRYkauYaz30yBsgUHB5dnnwGRSH3vN7usuhs
maH/UkhJFGXAY4j0bn2zP8RrUM3/z9EoQQ2DjbYYiCy+zK6cTIfG7VRMCbBzip0g
ok44PsPxSx9awlABeCQbV+32ARkeysEEtsVjyPhu5Xyf+eTxBA1du3l5tPgeAmsn
RFy2yt/I+oHs1SXGybipHd0GWhgp5tGajwTWe9qSTY5qNAdHRkW6pTuSpYfagTmJ
aidtoTFGW0rdLTCCES67pWmKpxgG//moN/uWVXsy5alMLgeqFglfe8N8FpgX3Ulf
cyAYIg==
-----END CERTIFICATE-----
